; Function Attrs: nounwind uwtable
define hidden void @_mi_segment_map_unsafe_destroy() local_unnamed_addr #0 {
  br label %2

1:                                                ; preds = %7
  ret void

2:                                                ; preds = %0, %7
  %.08 = phi i64 [ 0, %0 ], [ %8, %7 ]
  %3 = getelementptr inbounds nuw [196 x ptr], ptr @mi_segment_map, i64 0, i64 %.08
  %4 = atomicrmw xchg ptr %3, i64 0 monotonic, align 8
  %.not = icmp eq i64 %4, 0
  br i1 %.not, label %7, label %5

5:                                                ; preds = %2
  %6 = inttoptr i64 %4 to ptr
  tail call void @_mi_os_free(ptr noundef nonnull %6, i64 noundef 8088, ptr noundef nonnull byval(%struct.mi_memid_s) align 8 %6) #6
  br label %7

7:                                                ; preds = %5, %2
  %8 = add nuw nsw i64 %.08, 1
  %exitcond.not = icmp eq i64 %8, 196
  br i1 %exitcond.not, label %1, label %2, !llvm.loop !21
}